target datalayout = "e-m:e-p270:32:32-p271:32:32-p272:64:64-i64:64-i128:128-f80:128-n8:16:32:64-S128"
target triple = "x86_64-pc-linux-gnu"

%"class.icu_77::UObject" = type { ptr }
%"class.icu_77::UnicodeString" = type { %"class.icu_77::Replaceable", %"union.icu_77::UnicodeString::StackBufferOrFields" }
%"class.icu_77::Replaceable" = type { %"class.icu_77::UObject" }
%"union.icu_77::UnicodeString::StackBufferOrFields" = type { %struct.anon.0, [32 x i8] }
%struct.anon.0 = type { i16, i32, i32, ptr }
%"struct.std::atomic" = type { %"struct.std::__atomic_base" }
%"struct.std::__atomic_base" = type { i32 }
%"class.icu_77::NFFactory" = type { %"class.icu_77::LocaleKeyFactory.base", ptr, ptr }
%"class.icu_77::LocaleKeyFactory.base" = type <{ %"class.icu_77::ICUServiceFactory", %"class.icu_77::UnicodeString", i32 }>
%"class.icu_77::ICUServiceFactory" = type { %"class.icu_77::UObject" }
%"struct.icu_77::UInitOnce" = type { %"struct.std::atomic", i32 }

@_ZL8gService = internal global ptr null, align 8
@_ZL16gServiceInitOnce = internal global { { i32 }, i32 } zeroinitializer, align 4

; Function Attrs: mustprogress nounwind uwtable
define linkonce_odr noundef i32 @_ZStanSt12memory_orderSt23__memory_order_modifier(i32 noundef %0, i32 noundef %1) #0 comdat {
  %3 = alloca i32, align 4
  %4 = alloca i32, align 4
  store i32 %0, ptr %3, align 4, !tbaa !221
  store i32 %1, ptr %4, align 4, !tbaa !223
  %5 = load i32, ptr %3, align 4, !tbaa !221
  %6 = load i32, ptr %4, align 4, !tbaa !223
  %7 = and i32 %5, %6
  ret i32 %7
}

; Function Attrs: alwaysinline mustprogress nounwind uwtable
define linkonce_odr noundef i32 @_ZNKSt13__atomic_baseIiE4loadESt12memory_order(ptr noundef nonnull align 4 dereferenceable(4) %0, i32 noundef %1) #14 comdat align 2 {
  %3 = alloca ptr, align 8
  %4 = alloca i32, align 4
  %5 = alloca i32, align 4
  %6 = alloca i32, align 4
  store ptr %0, ptr %3, align 8, !tbaa !219
  store i32 %1, ptr %4, align 4, !tbaa !221
  %7 = load ptr, ptr %3, align 8
  call void @llvm.lifetime.start.p0(i64 4, ptr %5) #15
  %8 = load i32, ptr %4, align 4, !tbaa !221
  %9 = call noundef i32 @_ZStanSt12memory_orderSt23__memory_order_modifier(i32 noundef %8, i32 noundef 65535)
  store i32 %9, ptr %5, align 4, !tbaa !221
  br label %10

10:                                               ; preds = %2
  br label %11

11:                                               ; preds = %10
  br label %12

12:                                               ; preds = %11
  br label %13

13:                                               ; preds = %12
  br label %14

14:                                               ; preds = %13
  br label %15

15:                                               ; preds = %14
  %16 = getelementptr inbounds nuw %"struct.std::__atomic_base", ptr %7, i32 0, i32 0
  %17 = load i32, ptr %4, align 4, !tbaa !221
  switch i32 %17, label %18 [
    i32 1, label %20
    i32 2, label %20
    i32 5, label %22
  ]

18:                                               ; preds = %15
  %19 = load atomic i32, ptr %16 monotonic, align 4
  store i32 %19, ptr %6, align 4
  br label %24

20:                                               ; preds = %15, %15
  %21 = load atomic i32, ptr %16 acquire, align 4
  store i32 %21, ptr %6, align 4
  br label %24

22:                                               ; preds = %15
  %23 = load atomic i32, ptr %16 seq_cst, align 4
  store i32 %23, ptr %6, align 4
  br label %24

24:                                               ; preds = %22, %20, %18
  %25 = load i32, ptr %6, align 4, !tbaa !14
  call void @llvm.lifetime.end.p0(i64 4, ptr %5) #15
  ret i32 %25
}

; Function Attrs: inlinehint mustprogress nounwind uwtable
define linkonce_odr noundef i32 @_ZN6icu_7716umtx_loadAcquireERSt6atomicIiE(ptr noundef nonnull align 4 dereferenceable(4) %0) #2 comdat {
  %2 = alloca ptr, align 8
  store ptr %0, ptr %2, align 8, !tbaa !225
  %3 = load ptr, ptr %2, align 8, !tbaa !225
  %4 = call noundef i32 @_ZNKSt13__atomic_baseIiE4loadESt12memory_order(ptr noundef nonnull align 4 dereferenceable(4) %3, i32 noundef 2) #15
  ret i32 %4
}

; Function Attrs: inlinehint mustprogress uwtable
define linkonce_odr void @_ZN6icu_7713umtx_initOnceERNS_9UInitOnceEPFvvE(ptr noundef nonnull align 4 dereferenceable(8) %0, ptr noundef %1) #3 comdat {
  %3 = alloca ptr, align 8
  %4 = alloca ptr, align 8
  store ptr %0, ptr %3, align 8, !tbaa !164
  store ptr %1, ptr %4, align 8, !tbaa !22
  %5 = load ptr, ptr %3, align 8, !tbaa !164
  %6 = getelementptr inbounds nuw %"struct.icu_77::UInitOnce", ptr %5, i32 0, i32 0
  %7 = call noundef i32 @_ZN6icu_7716umtx_loadAcquireERSt6atomicIiE(ptr noundef nonnull align 4 dereferenceable(4) %6)
  %8 = icmp eq i32 %7, 2
  br i1 %8, label %9, label %10

9:                                                ; preds = %2
  br label %17

10:                                               ; preds = %2
  %11 = load ptr, ptr %3, align 8, !tbaa !164
  %12 = call noundef signext i8 @_ZN6icu_7720umtx_initImplPreInitERNS_9UInitOnceE(ptr noundef nonnull align 4 dereferenceable(8) %11)
  %13 = icmp ne i8 %12, 0
  br i1 %13, label %14, label %17

14:                                               ; preds = %10
  %15 = load ptr, ptr %4, align 8, !tbaa !22
  call void %15()
  %16 = load ptr, ptr %3, align 8, !tbaa !164
  call void @_ZN6icu_7721umtx_initImplPostInitERNS_9UInitOnceE(ptr noundef nonnull align 4 dereferenceable(8) %16)
  br label %17

17:                                               ; preds = %9, %14, %10
  ret void
}

; Function Attrs: mustprogress uwtable
define linkonce_odr void @_ZN6icu_779NFFactoryC2EPNS_19NumberFormatFactoryE(ptr noundef nonnull align 8 dereferenceable(96) %0, ptr noundef %1) unnamed_addr #1 comdat align 2 {
  %3 = alloca ptr, align 8
  %4 = alloca ptr, align 8
  store ptr %0, ptr %3, align 8, !tbaa !122
  store ptr %1, ptr %4, align 8, !tbaa !23
  %5 = load ptr, ptr %3, align 8
  %6 = load ptr, ptr %4, align 8, !tbaa !23
  %7 = load ptr, ptr %6, align 8, !tbaa !30
  %8 = getelementptr inbounds ptr, ptr %7, i64 3
  %9 = load ptr, ptr %8, align 8
  %10 = call noundef signext i8 %9(ptr noundef nonnull align 8 dereferenceable(8) %6)
  %11 = icmp ne i8 %10, 0
  %12 = select i1 %11, i32 0, i32 1
  call void @_ZN6icu_7716LocaleKeyFactoryC2Ei(ptr noundef nonnull align 8 dereferenceable(76) %5, i32 noundef %12)
  store ptr getelementptr inbounds inrange(-16, 72) ({ [11 x ptr] }, ptr @_ZTVN6icu_779NFFactoryE, i32 0, i32 0, i32 2), ptr %5, align 8, !tbaa !30
  %13 = getelementptr inbounds nuw %"class.icu_77::NFFactory", ptr %5, i32 0, i32 1
  %14 = load ptr, ptr %4, align 8, !tbaa !23
  store ptr %14, ptr %13, align 8, !tbaa !124
  %15 = getelementptr inbounds nuw %"class.icu_77::NFFactory", ptr %5, i32 0, i32 2
  store ptr null, ptr %15, align 8, !tbaa !129
  ret void
}

; Function Attrs: mustprogress uwtable
define internal noundef ptr @_ZN6icu_77L22getNumberFormatServiceEv() #1 {
  call void @_ZN6icu_7713umtx_initOnceERNS_9UInitOnceEPFvvE(ptr noundef nonnull align 4 dereferenceable(8) @_ZL16gServiceInitOnce, ptr noundef @_ZN6icu_77L23initNumberFormatServiceEv)
  %1 = load ptr, ptr @_ZL8gService, align 8, !tbaa !139
  ret ptr %1
}

; Function Attrs: inlinehint mustprogress nounwind uwtable
define internal noundef signext i8 @_ZL9U_FAILURE10UErrorCode(i32 noundef %0) #2 {
  %2 = alloca i32, align 4
  store i32 %0, ptr %2, align 4, !tbaa !15
  %3 = load i32, ptr %2, align 4, !tbaa !15
  %4 = icmp sgt i32 %3, 0
  %5 = zext i1 %4 to i8
  ret i8 %5
}

; Function Attrs: mustprogress uwtable
define noundef ptr @_ZN6icu_7712NumberFormat15registerFactoryEPNS_19NumberFormatFactoryER10UErrorCode(ptr noundef %0, ptr noundef nonnull align 4 dereferenceable(4) %1) #1 align 2 personality ptr @__gxx_personality_v0 {
  %3 = alloca ptr, align 8
  %4 = alloca ptr, align 8
  %5 = alloca ptr, align 8
  %6 = alloca ptr, align 8
  %7 = alloca ptr, align 8
  %8 = alloca ptr, align 8
  %9 = alloca i1, align 1
  %10 = alloca ptr, align 8
  %11 = alloca i32, align 4
  %12 = alloca i32, align 4
  store ptr %0, ptr %4, align 8, !tbaa !23
  store ptr %1, ptr %5, align 8, !tbaa !22
  %13 = load ptr, ptr %5, align 8, !tbaa !22
  %14 = load i32, ptr %13, align 4, !tbaa !15
  %15 = call noundef signext i8 @_ZL9U_FAILURE10UErrorCode(i32 noundef %14)
  %16 = icmp ne i8 %15, 0
  br i1 %16, label %17, label %25

17:                                               ; preds = %2
  %18 = load ptr, ptr %4, align 8, !tbaa !23
  %19 = icmp eq ptr %18, null
  br i1 %19, label %24, label %20

20:                                               ; preds = %17
  %21 = load ptr, ptr %18, align 8, !tbaa !30
  %22 = getelementptr inbounds ptr, ptr %21, i64 1
  %23 = load ptr, ptr %22, align 8
  call void %23(ptr noundef nonnull align 8 dereferenceable(8) %18) #15
  br label %24

24:                                               ; preds = %20, %17
  store ptr null, ptr %3, align 8
  br label %62

25:                                               ; preds = %2
  call void @llvm.lifetime.start.p0(i64 8, ptr %6) #15
  %26 = call noundef ptr @_ZN6icu_77L22getNumberFormatServiceEv()
  store ptr %26, ptr %6, align 8, !tbaa !139
  %27 = load ptr, ptr %6, align 8, !tbaa !139
  %28 = icmp ne ptr %27, null
  br i1 %28, label %29, label %59

29:                                               ; preds = %25
  call void @llvm.lifetime.start.p0(i64 8, ptr %7) #15
  %30 = call noundef ptr @_ZN6icu_777UMemorynwEm(i64 noundef 96) #15
  %31 = icmp eq ptr %30, null
  store i1 false, ptr %9, align 1
  br i1 %31, label %35, label %32

32:                                               ; preds = %29
  store ptr %30, ptr %8, align 8
  store i1 true, ptr %9, align 1
  %33 = load ptr, ptr %4, align 8, !tbaa !23
  invoke void @_ZN6icu_779NFFactoryC2EPNS_19NumberFormatFactoryE(ptr noundef nonnull align 8 dereferenceable(96) %30, ptr noundef %33)
          to label %34 unwind label %47

34:                                               ; preds = %32
  br label %35

35:                                               ; preds = %34, %29
  %36 = phi ptr [ %30, %34 ], [ null, %29 ]
  store ptr %36, ptr %7, align 8, !tbaa !122
  %37 = load ptr, ptr %7, align 8, !tbaa !122
  %38 = icmp ne ptr %37, null
  br i1 %38, label %39, label %55

39:                                               ; preds = %35
  %40 = load ptr, ptr %6, align 8, !tbaa !139
  %41 = load ptr, ptr %7, align 8, !tbaa !122
  %42 = load ptr, ptr %5, align 8, !tbaa !22
  %43 = load ptr, ptr %40, align 8, !tbaa !30
  %44 = getelementptr inbounds ptr, ptr %43, i64 9
  %45 = load ptr, ptr %44, align 8
  %46 = call noundef ptr %45(ptr noundef nonnull align 8 dereferenceable(120) %40, ptr noundef %41, ptr noundef nonnull align 4 dereferenceable(4) %42)
  store ptr %46, ptr %3, align 8
  store i32 1, ptr %12, align 4
  br label %56

47:                                               ; preds = %32
  %48 = landingpad { ptr, i32 }
          cleanup
  %49 = extractvalue { ptr, i32 } %48, 0
  store ptr %49, ptr %10, align 8
  %50 = extractvalue { ptr, i32 } %48, 1
  store i32 %50, ptr %11, align 4
  %51 = load i1, ptr %9, align 1
  br i1 %51, label %52, label %54

52:                                               ; preds = %47
  %53 = load ptr, ptr %8, align 8
  call void @_ZN6icu_777UMemorydlEPv(ptr noundef %53) #15
  br label %54

54:                                               ; preds = %52, %47
  call void @llvm.lifetime.end.p0(i64 8, ptr %7) #15
  call void @llvm.lifetime.end.p0(i64 8, ptr %6) #15
  br label %64

55:                                               ; preds = %35
  store i32 0, ptr %12, align 4
  br label %56

56:                                               ; preds = %55, %39
  call void @llvm.lifetime.end.p0(i64 8, ptr %7) #15
  %57 = load i32, ptr %12, align 4
  switch i32 %57, label %61 [
    i32 0, label %58
  ]

58:                                               ; preds = %56
  br label %59

59:                                               ; preds = %58, %25
  %60 = load ptr, ptr %5, align 8, !tbaa !22
  store i32 7, ptr %60, align 4, !tbaa !15
  store ptr null, ptr %3, align 8
  store i32 1, ptr %12, align 4
  br label %61

61:                                               ; preds = %59, %56
  call void @llvm.lifetime.end.p0(i64 8, ptr %6) #15
  br label %62

62:                                               ; preds = %61, %24
  %63 = load ptr, ptr %3, align 8
  ret ptr %63

64:                                               ; preds = %54
  %65 = load ptr, ptr %10, align 8
  %66 = load i32, ptr %11, align 4
  %67 = insertvalue { ptr, i32 } poison, ptr %65, 0
  %68 = insertvalue { ptr, i32 } %67, i32 %66, 1
  resume { ptr, i32 } %68
}