; Function Attrs: mustprogress uwtable
define noundef ptr @_ZN6icu_7712NumberFormat15registerFactoryEPNS_19NumberFormatFactoryER10UErrorCode(ptr noundef %0, ptr noundef nonnull align 4 dereferenceable(4) %1) local_unnamed_addr #1 align 2 personality ptr @__gxx_personality_v0 {
  %3 = load i32, ptr %1, align 4, !tbaa !13
  %4 = icmp slt i32 %3, 1
  br i1 %4, label %11, label %5

5:                                                ; preds = %2
  %6 = icmp eq ptr %0, null
  br i1 %6, label %41, label %7

7:                                                ; preds = %5
  %8 = load ptr, ptr %0, align 8, !tbaa !15
  %9 = getelementptr inbounds nuw i8, ptr %8, i64 8
  %10 = load ptr, ptr %9, align 8
  tail call void %10(ptr noundef nonnull align 8 dereferenceable(8) %0) #22
  br label %41

11:                                               ; preds = %2
  %12 = load atomic i32, ptr @_ZL16gServiceInitOnce acquire, align 4
  %13 = icmp eq i32 %12, 2
  br i1 %13, label %_ZN6icu_77L22getNumberFormatServiceEv.exit, label %14

14:                                               ; preds = %11
  %15 = tail call noundef signext i8 @_ZN6icu_7720umtx_initImplPreInitERNS_9UInitOnceE(ptr noundef nonnull align 4 dereferenceable(8) @_ZL16gServiceInitOnce)
  %.not.i.i = icmp eq i8 %15, 0
  br i1 %.not.i.i, label %_ZN6icu_77L22getNumberFormatServiceEv.exit, label %16

16:                                               ; preds = %14
  tail call void @ucln_i18n_registerCleanup_77(i32 noundef 23, ptr noundef nonnull @_ZL14numfmt_cleanupv)
  %17 = tail call noundef ptr @_ZN6icu_777UMemorynwEm(i64 noundef 408) #22
  %18 = icmp eq ptr %17, null
  br i1 %18, label %_ZN6icu_77L23initNumberFormatServiceEv.exit.i, label %19

19:                                               ; preds = %16
  invoke void @_ZN6icu_7722ICUNumberFormatServiceC2Ev(ptr noundef nonnull align 8 dereferenceable(408) %17)
          to label %_ZN6icu_77L23initNumberFormatServiceEv.exit.i unwind label %20

common.resume:                                    ; preds = %32, %20
  %.sink = phi ptr [ %24, %32 ], [ %17, %20 ]
  %common.resume.op = phi { ptr, i32 } [ %33, %32 ], [ %21, %20 ]
  tail call void @_ZN6icu_777UMemorydlEPv(ptr noundef nonnull %.sink) #22
  resume { ptr, i32 } %common.resume.op

20:                                               ; preds = %19
  %21 = landingpad { ptr, i32 }
          cleanup
  br label %common.resume

_ZN6icu_77L23initNumberFormatServiceEv.exit.i:    ; preds = %19, %16
  store ptr %17, ptr @_ZL8gService, align 8, !tbaa !66
  tail call void @_ZN6icu_7721umtx_initImplPostInitERNS_9UInitOnceE(ptr noundef nonnull align 4 dereferenceable(8) @_ZL16gServiceInitOnce)
  br label %_ZN6icu_77L22getNumberFormatServiceEv.exit

_ZN6icu_77L22getNumberFormatServiceEv.exit:       ; preds = %11, %14, %_ZN6icu_77L23initNumberFormatServiceEv.exit.i
  %22 = load ptr, ptr @_ZL8gService, align 8, !tbaa !66
  %.not19 = icmp eq ptr %22, null
  br i1 %.not19, label %.thread24, label %23

23:                                               ; preds = %_ZN6icu_77L22getNumberFormatServiceEv.exit
  %24 = tail call noundef ptr @_ZN6icu_777UMemorynwEm(i64 noundef 96) #22
  %25 = icmp eq ptr %24, null
  br i1 %25, label %.thread24, label %26

26:                                               ; preds = %23
  %27 = load ptr, ptr %0, align 8, !tbaa !15
  %28 = getelementptr inbounds nuw i8, ptr %27, i64 24
  %29 = load ptr, ptr %28, align 8
  %30 = invoke noundef signext i8 %29(ptr noundef nonnull align 8 dereferenceable(8) %0)
          to label %.noexc unwind label %32

.noexc:                                           ; preds = %26
  %.not.i = icmp eq i8 %30, 0
  %31 = zext i1 %.not.i to i32
  invoke void @_ZN6icu_7716LocaleKeyFactoryC2Ei(ptr noundef nonnull align 8 dereferenceable(96) %24, i32 noundef %31)
          to label %34 unwind label %32

32:                                               ; preds = %.noexc, %26
  %33 = landingpad { ptr, i32 }
          cleanup
  br label %common.resume

34:                                               ; preds = %.noexc
  store ptr getelementptr inbounds nuw inrange(-16, 72) (i8, ptr @_ZTVN6icu_779NFFactoryE, i64 16), ptr %24, align 8, !tbaa !15
  %35 = getelementptr inbounds nuw i8, ptr %24, i64 80
  store ptr %0, ptr %35, align 8, !tbaa !68
  %36 = getelementptr inbounds nuw i8, ptr %24, i64 88
  store ptr null, ptr %36, align 8, !tbaa !74
  %37 = load ptr, ptr %22, align 8, !tbaa !15
  %38 = getelementptr inbounds nuw i8, ptr %37, i64 72
  %39 = load ptr, ptr %38, align 8
  %40 = tail call noundef ptr %39(ptr noundef nonnull align 8 dereferenceable(120) %22, ptr noundef nonnull %24, ptr noundef nonnull align 4 dereferenceable(4) %1)
  br label %41

.thread24:                                        ; preds = %23, %_ZN6icu_77L22getNumberFormatServiceEv.exit
  store i32 7, ptr %1, align 4, !tbaa !13
  br label %41

41:                                               ; preds = %34, %.thread24, %5, %7
  %.014 = phi ptr [ null, %7 ], [ null, %5 ], [ null, %.thread24 ], [ %40, %34 ]
  ret ptr %.014
}